(dp0
cnumpy.core.multiarray
scalar
p1
(cnumpy
dtype
p2
(S'i4'
p3
I0
I1
tp4
Rp5
(I3
S'<'
p6
NNNI-1
I-1
I0
tp7
bS'\x00\x00\x00\x00'
p8
tp9
Rp10
(dp11
S'predominant_country'
p12
(lp13
(S'DE'
p14
I8
tp15
a(S'ES'
p16
I8
tp17
a(S'FR'
p18
I5
tp19
asS'num_members'
p20
I30
sS'top_amrs'
p21
(lp22
(S'tet(Q)'
p23
I30
tp24
a(S'tet(W)'
p25
I30
tp26
a(S'tet(O)'
p27
I30
tp28
a(S'aadE'
p29
I30
tp30
a(S'mef(A)'
p31
I29
tp32
a(S'tet(44)'
p33
I29
tp34
a(S'tet(40)'
p35
I28
tp36
a(S'lnu(C)'
p37
I23
tp38
a(S'erm(F)'
p39
I21
tp40
a(S'cfxA'
p41
I17
tp42
assg1
(g5
S'\x01\x00\x00\x00'
p43
tp44
Rp45
(dp46
g12
(lp47
(S'IT'
p48
I13
tp49
a(g18
I11
tp50
a(S'BE'
p51
I6
tp52
asg20
I37
sg21
(lp53
(g23
I37
tp54
a(g25
I37
tp55
a(g35
I37
tp56
a(g27
I37
tp57
a(g31
I36
tp58
a(g29
I36
tp59
a(g39
I35
tp60
a(g33
I34
tp61
a(g37
I32
tp62
a(g41
I26
tp63
assg1
(g5
S'\x02\x00\x00\x00'
p64
tp65
Rp66
(dp67
g12
(lp68
(S'NL'
p69
I16
tp70
a(S'DK'
p71
I11
tp72
a(S'BG'
p73
I7
tp74
asg20
I46
sg21
(lp75
(g31
I46
tp76
a(g23
I46
tp77
a(g25
I46
tp78
a(g27
I46
tp79
a(g29
I46
tp80
a(g33
I45
tp81
a(g35
I44
tp82
a(g41
I41
tp83
a(g37
I40
tp84
a(g39
I15
tp85
assg1
(g5
S'\x03\x00\x00\x00'
p86
tp87
Rp88
(dp89
g12
(lp90
(g16
I9
tp91
a(g14
I7
tp92
a(g51
I4
tp93
asg20
I33
sg21
(lp94
(g23
I33
tp95
a(g25
I33
tp96
a(g27
I33
tp97
a(g35
I33
tp98
a(g31
I32
tp99
a(g29
I32
tp100
a(g33
I32
tp101
a(g37
I26
tp102
a(g41
I22
tp103
a(g39
I21
tp104
assg1
(g5
S'\x04\x00\x00\x00'
p105
tp106
Rp107
(dp108
g12
(lp109
(g73
I7
tp110
a(S'PL'
p111
I6
tp112
a(g71
I4
tp113
asg20
I23
sg21
(lp114
(g31
I23
tp115
a(g23
I23
tp116
a(g29
I23
tp117
a(g33
I23
tp118
a(g25
I23
tp119
a(g27
I23
tp120
a(g35
I22
tp121
a(g41
I20
tp122
a(g37
I14
tp123
a(g39
I11
tp124
assg1
(g5
S'\x05\x00\x00\x00'
p125
tp126
Rp127
(dp128
g12
(lp129
(g14
I4
tp130
asg20
I4
sg21
(lp131
(g23
I4
tp132
a(g29
I4
tp133
a(g33
I4
tp134
a(g25
I4
tp135
a(S'ant(6)-I'
p136
I4
tp137
a(g35
I4
tp138
a(g27
I4
tp139
a(g31
I3
tp140
a(g37
I2
tp141
a(S'tet(32)'
p142
I2
tp143
ass.