(dp0
cnumpy.core.multiarray
scalar
p1
(cnumpy
dtype
p2
(S'i4'
p3
I0
I1
tp4
Rp5
(I3
S'<'
p6
NNNI-1
I-1
I0
tp7
bS'\x00\x00\x00\x00'
p8
tp9
Rp10
(dp11
S'predominant_country'
p12
(lp13
(S'BE'
p14
I10
tp15
a(S'IT'
p16
I6
tp17
a(S'NL'
p18
I4
tp19
asS'num_members'
p20
I31
sS'top_amrs'
p21
(lp22
(S'tet(W)'
p23
I31
tp24
a(S'erm(B)'
p25
I29
tp26
a(S'tet(L)'
p27
I18
tp28
a(S'tet(Q)'
p29
I17
tp30
a(S'tet(M)'
p31
I17
tp32
a(S'tet(O)'
p33
I16
tp34
a(S'lnu(A)'
p35
I16
tp36
a(S'blaTEM'
p37
I16
tp38
a(S'lnu(C)'
p39
I15
tp40
a(S'aadE'
p41
I14
tp42
assg1
(g5
S'\x01\x00\x00\x00'
p43
tp44
Rp45
(dp46
g12
(lp47
(S'FR'
p48
I16
tp49
a(S'DK'
p50
I14
tp51
a(g18
I12
tp52
asg20
I95
sg21
(lp53
(g23
I94
tp54
a(g25
I76
tp55
a(g37
I61
tp56
a(S'aadA'
p57
I52
tp58
a(g29
I48
tp59
a(g31
I47
tp60
a(S'tet(A)'
p61
I45
tp62
a(g27
I43
tp63
a(g35
I41
tp64
a(g39
I41
tp65
assg1
(g5
S'\x02\x00\x00\x00'
p66
tp67
Rp68
(dp69
g12
(lp70
(S'BG'
p71
I3
tp72
a(S'DE'
p73
I3
tp74
a(S'PL'
p75
I2
tp76
asg20
I12
sg21
(lp77
(g23
I12
tp78
a(g25
I10
tp79
a(g61
I8
tp80
a(g39
I7
tp81
a(g29
I6
tp82
a(g31
I6
tp83
a(g35
I6
tp84
a(g37
I6
tp85
a(g57
I6
tp86
a(g41
I6
tp87
assg1
(g5
S'\x03\x00\x00\x00'
p88
tp89
Rp90
(dp91
g12
(lp92
(g71
I6
tp93
a(g50
I4
tp94
a(g73
I4
tp95
asg20
I22
sg21
(lp96
(g23
I22
tp97
a(g25
I16
tp98
a(g39
I13
tp99
a(g37
I13
tp100
a(g57
I13
tp101
a(g35
I12
tp102
a(S'sul2'
p103
I11
tp104
a(g31
I10
tp105
a(g41
I9
tp106
a(g61
I9
tp107
assg1
(g5
S'\x04\x00\x00\x00'
p108
tp109
Rp110
(dp111
g12
(lp112
(S'ES'
p113
I2
tp114
a(g48
I1
tp115
asg20
I3
sg21
(lp116
(g23
I3
tp117
a(g25
I3
tp118
a(S'tet(Z)'
p119
I2
tp120
a(S'strB'
p121
I2
tp122
a(S'aac(3)-IV'
p123
I2
tp124
a(S'cmx'
p125
I2
tp126
a(S'aph(4)-I'
p127
I2
tp128
a(g35
I1
tp129
a(g29
I1
tp130
a(g41
I1
tp131
assg1
(g5
S'\x05\x00\x00\x00'
p132
tp133
Rp134
(dp135
g12
(lp136
(g71
I1
tp137
a(g18
I1
tp138
a(g113
I1
tp139
asg20
I3
sg21
(lp140
(g23
I3
tp141
a(g121
I3
tp142
a(g57
I2
tp143
a(g31
I2
tp144
a(g103
I2
tp145
a(g61
I2
tp146
a(S'strA'
p147
I2
tp148
a(g25
I2
tp149
a(g29
I1
tp150
a(g39
I1
tp151
ass.